; Function Attrs: nofree norecurse nosync nounwind memory(readwrite, inaccessiblemem: none) uwtable
define void @Ppmd7_Update1(ptr noundef captures(none) %0) local_unnamed_addr #6 {
  %2 = alloca %struct.CPpmd_State, align 2
  %3 = getelementptr inbounds nuw i8, ptr %0, i64 16
  %4 = load ptr, ptr %3, align 8, !tbaa !37
  %5 = getelementptr inbounds nuw i8, ptr %4, i64 1
  %6 = load i8, ptr %5, align 1, !tbaa !42
  %7 = add i8 %6, 4
  store i8 %7, ptr %5, align 1, !tbaa !42
  %8 = load ptr, ptr %0, align 8, !tbaa !32
  %9 = getelementptr inbounds nuw i8, ptr %8, i64 2
  %10 = load i16, ptr %9, align 2, !tbaa !36
  %11 = add i16 %10, 4
  store i16 %11, ptr %9, align 2, !tbaa !36
  %12 = getelementptr inbounds i8, ptr %4, i64 -5
  %13 = load i8, ptr %12, align 1, !tbaa !42
  %14 = icmp ugt i8 %7, %13
  br i1 %14, label %15, label %20

15:                                               ; preds = %1
  %16 = getelementptr inbounds i8, ptr %4, i64 -6
  call void @llvm.lifetime.start.p0(i64 6, ptr nonnull %2)
  call void @llvm.memcpy.p0.p0.i64(ptr noundef nonnull align 2 dereferenceable(6) %2, ptr noundef nonnull align 2 dereferenceable(6) %4, i64 6, i1 false), !tbaa.struct !51
  tail call void @llvm.memcpy.p0.p0.i64(ptr noundef nonnull align 2 dereferenceable(6) %4, ptr noundef nonnull align 2 dereferenceable(6) %16, i64 6, i1 false), !tbaa.struct !51
  call void @llvm.memcpy.p0.p0.i64(ptr noundef nonnull align 2 dereferenceable(6) %16, ptr noundef nonnull align 2 dereferenceable(6) %2, i64 6, i1 false), !tbaa.struct !51
  call void @llvm.lifetime.end.p0(i64 6, ptr nonnull %2)
  store ptr %16, ptr %3, align 8, !tbaa !37
  %17 = load i8, ptr %12, align 1, !tbaa !42
  %18 = icmp ugt i8 %17, 124
  br i1 %18, label %19, label %20

19:                                               ; preds = %15
  tail call fastcc void @Rescale(ptr noundef nonnull %0)
  %.pre = load ptr, ptr %3, align 8, !tbaa !37
  br label %20

20:                                               ; preds = %15, %19, %1
  %21 = phi ptr [ %16, %15 ], [ %.pre, %19 ], [ %4, %1 ]
  %22 = getelementptr inbounds nuw i8, ptr %0, i64 64
  %23 = load ptr, ptr %22, align 8, !tbaa !3
  %24 = getelementptr inbounds nuw i8, ptr %21, i64 2
  %25 = load i32, ptr %24, align 2
  %26 = zext i32 %25 to i64
  %27 = getelementptr inbounds nuw i8, ptr %23, i64 %26
  %28 = getelementptr inbounds nuw i8, ptr %0, i64 24
  %29 = load i32, ptr %28, align 8, !tbaa !26
  %30 = icmp eq i32 %29, 0
  br i1 %30, label %31, label %37

31:                                               ; preds = %20
  %32 = getelementptr inbounds nuw i8, ptr %0, i64 88
  %33 = load ptr, ptr %32, align 8, !tbaa !23
  %34 = icmp ugt ptr %27, %33
  br i1 %34, label %35, label %37

35:                                               ; preds = %31
  %36 = getelementptr inbounds nuw i8, ptr %0, i64 8
  store ptr %27, ptr %36, align 8, !tbaa !31
  store ptr %27, ptr %0, align 8, !tbaa !32
  br label %NextContext.exit

37:                                               ; preds = %31, %20
  tail call fastcc void @UpdateModel(ptr noundef nonnull %0)
  br label %NextContext.exit

NextContext.exit:                                 ; preds = %35, %37
  ret void
}